target datalayout = "e-m:e-p270:32:32-p271:32:32-p272:64:64-i64:64-i128:128-f80:128-n8:16:32:64-S128"
target triple = "x86_64-unknown-linux-gnu"

@_ZN21grpc_chttp2_transportC1ERKN9grpc_core11ChannelArgsEP13grpc_endpointb = unnamed_addr alias void (ptr, ptr, ptr, i1), ptr @_ZN21grpc_chttp2_transportC2ERKN9grpc_core11ChannelArgsEP13grpc_endpointb

; Function Attrs: mustprogress uwtable
define noundef ptr @_Z28grpc_create_chttp2_transportRKN9grpc_core11ChannelArgsEP13grpc_endpointb(ptr noundef nonnull align 8 dereferenceable(8) %channel_args, ptr noundef %ep, i1 noundef zeroext %is_client) #5 personality ptr @__gxx_personality_v0 {
entry:
  %channel_args.addr = alloca ptr, align 8
  %ep.addr = alloca ptr, align 8
  %is_client.addr = alloca i8, align 1
  %exn.slot = alloca ptr, align 8
  %ehselector.slot = alloca i32, align 4
  store ptr %channel_args, ptr %channel_args.addr, align 8
  store ptr %ep, ptr %ep.addr, align 8
  %frombool = zext i1 %is_client to i8
  store i8 %frombool, ptr %is_client.addr, align 1
  %call = call noalias noundef nonnull ptr @_Znwm(i64 noundef 3384) #23
  %0 = load ptr, ptr %channel_args.addr, align 8
  %1 = load ptr, ptr %ep.addr, align 8
  %2 = load i8, ptr %is_client.addr, align 1
  %tobool = trunc i8 %2 to i1
  invoke void @_ZN21grpc_chttp2_transportC1ERKN9grpc_core11ChannelArgsEP13grpc_endpointb(ptr noundef nonnull align 8 dereferenceable(3384) %call, ptr noundef nonnull align 8 dereferenceable(8) %0, ptr noundef %1, i1 noundef zeroext %tobool)
          to label %invoke.cont unwind label %lpad

invoke.cont:                                      ; preds = %entry
  ret ptr %call

lpad:                                             ; preds = %entry
  %3 = landingpad { ptr, i32 }
          cleanup
  %4 = extractvalue { ptr, i32 } %3, 0
  store ptr %4, ptr %exn.slot, align 8
  %5 = extractvalue { ptr, i32 } %3, 1
  store i32 %5, ptr %ehselector.slot, align 4
  call void @_ZdlPv(ptr noundef %call) #20
  br label %eh.resume

eh.resume:                                        ; preds = %lpad
  %exn = load ptr, ptr %exn.slot, align 8
  %sel = load i32, ptr %ehselector.slot, align 4
  %lpad.val = insertvalue { ptr, i32 } poison, ptr %exn, 0
  %lpad.val1 = insertvalue { ptr, i32 } %lpad.val, i32 %sel, 1
  resume { ptr, i32 } %lpad.val1
}