; Function Attrs: mustprogress uwtable
define noundef ptr @_Z28grpc_create_chttp2_transportRKN9grpc_core11ChannelArgsEP13grpc_endpointb(ptr noundef nonnull align 8 dereferenceable(8) %channel_args, ptr noundef %ep, i1 noundef zeroext %is_client) local_unnamed_addr #5 personality ptr @__gxx_personality_v0 {
entry:
  %call = tail call noalias noundef nonnull dereferenceable(3384) ptr @_Znwm(i64 noundef 3384) #37
  invoke void @_ZN21grpc_chttp2_transportC1ERKN9grpc_core11ChannelArgsEP13grpc_endpointb(ptr noundef nonnull align 8 dereferenceable(3384) %call, ptr noundef nonnull align 8 dereferenceable(8) %channel_args, ptr noundef %ep, i1 noundef zeroext %is_client)
          to label %invoke.cont unwind label %lpad

invoke.cont:                                      ; preds = %entry
  ret ptr %call

lpad:                                             ; preds = %entry
  %0 = landingpad { ptr, i32 }
          cleanup
  tail call void @_ZdlPv(ptr noundef nonnull %call) #35
  resume { ptr, i32 } %0
}